; Function Attrs: mustprogress uwtable
define hidden noundef zeroext i1 @_ZN3euf6egraph9are_diseqEPNS_5enodeES2_(ptr noundef nonnull readnone align 8 captures(none) dereferenceable(536) %0, ptr noundef readonly captures(none) %1, ptr noundef readonly captures(none) %2) local_unnamed_addr #3 align 2 {
  %4 = getelementptr inbounds nuw i8, ptr %1, i64 64
  %5 = load ptr, ptr %4, align 8, !tbaa !32
  %6 = getelementptr inbounds nuw i8, ptr %2, i64 64
  %7 = load ptr, ptr %6, align 8, !tbaa !32
  %8 = icmp eq ptr %5, %7
  br i1 %8, label %66, label %9

9:                                                ; preds = %3
  %10 = getelementptr inbounds nuw i8, ptr %5, i64 12
  %11 = load i8, ptr %10, align 4, !tbaa !145, !range !109, !noundef !110
  %12 = trunc nuw i8 %11 to i1
  br i1 %12, label %13, label %17

13:                                               ; preds = %9
  %14 = getelementptr inbounds nuw i8, ptr %7, i64 12
  %15 = load i8, ptr %14, align 4, !tbaa !145, !range !109, !noundef !110
  %16 = trunc nuw i8 %15 to i1
  br i1 %16, label %66, label %17

17:                                               ; preds = %13, %9
  %18 = load ptr, ptr %5, align 8, !tbaa !30
  %19 = tail call noundef ptr @_ZNK4expr8get_sortEv(ptr noundef nonnull align 4 dereferenceable(16) %18)
  %20 = load ptr, ptr %7, align 8, !tbaa !30
  %21 = tail call noundef ptr @_ZNK4expr8get_sortEv(ptr noundef nonnull align 4 dereferenceable(16) %20)
  %.not = icmp eq ptr %19, %21
  br i1 %.not, label %22, label %66

22:                                               ; preds = %17
  %23 = getelementptr inbounds nuw i8, ptr %5, i64 48
  %24 = load ptr, ptr %23, align 8, !tbaa !112
  %25 = icmp eq ptr %24, null
  br i1 %25, label %_ZNK3euf5enode11num_parentsEv.exit.i, label %26

26:                                               ; preds = %22
  %27 = getelementptr inbounds i8, ptr %24, i64 -4
  %28 = load i32, ptr %27, align 4, !tbaa !113
  br label %_ZNK3euf5enode11num_parentsEv.exit.i

_ZNK3euf5enode11num_parentsEv.exit.i:             ; preds = %26, %22
  %.0.i.i.i = phi i32 [ %28, %26 ], [ 0, %22 ]
  %29 = getelementptr inbounds nuw i8, ptr %7, i64 48
  %30 = load ptr, ptr %29, align 8, !tbaa !112
  %31 = icmp eq ptr %30, null
  br i1 %31, label %_ZNK3euf5enode11num_parentsEv.exit16.i, label %32

32:                                               ; preds = %_ZNK3euf5enode11num_parentsEv.exit.i
  %33 = getelementptr inbounds i8, ptr %30, i64 -4
  %34 = load i32, ptr %33, align 4, !tbaa !113
  br label %_ZNK3euf5enode11num_parentsEv.exit16.i

_ZNK3euf5enode11num_parentsEv.exit16.i:           ; preds = %32, %_ZNK3euf5enode11num_parentsEv.exit.i
  %.0.i.i15.i = phi i32 [ %34, %32 ], [ 0, %_ZNK3euf5enode11num_parentsEv.exit.i ]
  %35 = icmp ugt i32 %.0.i.i.i, %.0.i.i15.i
  %spec.select27.i = select i1 %35, ptr %5, ptr %7
  %spec.select28.i = select i1 %35, ptr %7, ptr %5
  %36 = getelementptr inbounds nuw i8, ptr %spec.select28.i, i64 48
  %37 = load ptr, ptr %36, align 8, !tbaa !112
  %38 = icmp eq ptr %37, null
  br i1 %38, label %_ZN3euf6egraph6tmp_eqEPNS_5enodeES2_.exit.thread, label %_ZNK3euf13enode_parents3endEv.exit.i

_ZNK3euf13enode_parents3endEv.exit.i:             ; preds = %_ZNK3euf5enode11num_parentsEv.exit16.i
  %39 = getelementptr inbounds i8, ptr %37, i64 -4
  %40 = load i32, ptr %39, align 4, !tbaa !113
  %41 = zext i32 %40 to i64
  %42 = getelementptr inbounds nuw ptr, ptr %37, i64 %41
  %.not29.i = icmp eq i32 %40, 0
  br i1 %.not29.i, label %_ZN3euf6egraph6tmp_eqEPNS_5enodeES2_.exit.thread, label %.lr.ph.i

.lr.ph.i:                                         ; preds = %_ZNK3euf13enode_parents3endEv.exit.i, %59
  %.01430.i = phi ptr [ %60, %59 ], [ %37, %_ZNK3euf13enode_parents3endEv.exit.i ]
  %43 = load ptr, ptr %.01430.i, align 8, !tbaa !47
  %44 = getelementptr inbounds nuw i8, ptr %43, i64 15
  %45 = load i8, ptr %44, align 1, !tbaa !151, !range !109, !noundef !110
  %46 = trunc nuw i8 %45 to i1
  br i1 %46, label %47, label %59

47:                                               ; preds = %.lr.ph.i
  %48 = getelementptr inbounds nuw i8, ptr %43, i64 176
  %49 = load ptr, ptr %48, align 8, !tbaa !47
  %50 = getelementptr inbounds nuw i8, ptr %49, i64 64
  %51 = load ptr, ptr %50, align 8, !tbaa !32
  %52 = icmp eq ptr %spec.select27.i, %51
  br i1 %52, label %_ZN3euf6egraph6tmp_eqEPNS_5enodeES2_.exit, label %53

53:                                               ; preds = %47
  %54 = getelementptr inbounds nuw i8, ptr %43, i64 184
  %55 = load ptr, ptr %54, align 8, !tbaa !47
  %56 = getelementptr inbounds nuw i8, ptr %55, i64 64
  %57 = load ptr, ptr %56, align 8, !tbaa !32
  %58 = icmp eq ptr %spec.select27.i, %57
  br i1 %58, label %_ZN3euf6egraph6tmp_eqEPNS_5enodeES2_.exit, label %59

59:                                               ; preds = %53, %.lr.ph.i
  %60 = getelementptr inbounds nuw i8, ptr %.01430.i, i64 8
  %.not.i = icmp eq ptr %60, %42
  br i1 %.not.i, label %_ZN3euf6egraph6tmp_eqEPNS_5enodeES2_.exit.thread, label %.lr.ph.i

_ZN3euf6egraph6tmp_eqEPNS_5enodeES2_.exit:        ; preds = %53, %47
  %61 = getelementptr inbounds nuw i8, ptr %43, i64 64
  %62 = load ptr, ptr %61, align 8, !tbaa !32
  %63 = getelementptr inbounds nuw i8, ptr %62, i64 24
  %64 = load i32, ptr %63, align 8, !tbaa !129
  %65 = icmp eq i32 %64, -1
  br i1 %65, label %66, label %_ZN3euf6egraph6tmp_eqEPNS_5enodeES2_.exit.thread

_ZN3euf6egraph6tmp_eqEPNS_5enodeES2_.exit.thread: ; preds = %59, %_ZNK3euf5enode11num_parentsEv.exit16.i, %_ZNK3euf13enode_parents3endEv.exit.i, %_ZN3euf6egraph6tmp_eqEPNS_5enodeES2_.exit
  br label %66

66:                                               ; preds = %_ZN3euf6egraph6tmp_eqEPNS_5enodeES2_.exit.thread, %_ZN3euf6egraph6tmp_eqEPNS_5enodeES2_.exit, %17, %13, %3
  %.0 = phi i1 [ false, %3 ], [ true, %13 ], [ true, %17 ], [ false, %_ZN3euf6egraph6tmp_eqEPNS_5enodeES2_.exit.thread ], [ true, %_ZN3euf6egraph6tmp_eqEPNS_5enodeES2_.exit ]
  ret i1 %.0
}